ARM GAS  C:\Users\santa\AppData\Local\Temp\ccZlFtcN.s 			page 1


   1              		.syntax unified
   2              		.cpu cortex-m3
   3              		.fpu softvfp
   4              		.eabi_attribute 20, 1
   5              		.eabi_attribute 21, 1
   6              		.eabi_attribute 23, 3
   7              		.eabi_attribute 24, 1
   8              		.eabi_attribute 25, 1
   9              		.eabi_attribute 26, 1
  10              		.eabi_attribute 30, 1
  11              		.eabi_attribute 34, 1
  12              		.eabi_attribute 18, 4
  13              		.thumb
  14              		.syntax unified
  15              		.file	"main.c"
  16              		.text
  17              	.Ltext0:
  18              		.cfi_sections	.debug_frame
  19              		.section	.text.Tiempos,"ax",%progbits
  20              		.align	2
  21              		.global	Tiempos
  22              		.thumb
  23              		.thumb_func
  24              		.type	Tiempos, %function
  25              	Tiempos:
  26              	.LFB68:
  27              		.file 1 "main.c"
   1:main.c        **** /* ========================================
   2:main.c        ****  *
   3:main.c        ****  * Copyright YOUR COMPANY, THE YEAR
   4:main.c        ****  * All Rights Reserved
   5:main.c        ****  * UNPUBLISHED, LICENSED SOFTWARE.
   6:main.c        ****  *
   7:main.c        ****  * CONFIDENTIAL AND PROPRIETARY INFORMATION
   8:main.c        ****  * WHICH IS THE PROPERTY OF your company.
   9:main.c        ****  *
  10:main.c        ****  * ========================================
  11:main.c        **** */
  12:main.c        **** #include "project.h"
  13:main.c        **** #include "stdlib.h"
  14:main.c        **** #include "stdio.h"
  15:main.c        **** #include "string.h"
  16:main.c        **** ; //Ref_Usuario-Neggras
  17:main.c        **** volatile uint16 Sref_N,Sref_B=0; // 
  18:main.c        **** volatile uint16 Mref_N,Mref_B=0;
  19:main.c        **** volatile uint16 Minutos_N,Minutos_B=0;
  20:main.c        **** volatile uint16 Segundos_B,Segundos_N=0;
  21:main.c        **** //volatile uint8 Flag_Sound=0;
  22:main.c        **** volatile uint8 Flag_Configuracion=0;
  23:main.c        **** volatile uint8 Register1=0;
  24:main.c        **** volatile uint8 cont=0;
  25:main.c        **** volatile uint8 cont_eventA=0;
  26:main.c        **** volatile uint8 r_visual=0;
  27:main.c        **** volatile char data_s;
  28:main.c        **** volatile char enter;
  29:main.c        **** volatile uint8 Type=0;
  30:main.c        **** volatile char Data_PrintN[5]="";
ARM GAS  C:\Users\santa\AppData\Local\Temp\ccZlFtcN.s 			page 2


  31:main.c        **** volatile char8 datay;
  32:main.c        **** volatile uint8 count_int=0;
  33:main.c        **** volatile uint8 Unidad_M=0;
  34:main.c        **** volatile uint8 Decena_M=0;
  35:main.c        **** volatile uint8 Unidad_S=0;
  36:main.c        **** volatile uint8 Decena_S=0;
  37:main.c        **** volatile uint8 Data_Value=0; //variable_de_datos
  38:main.c        **** volatile uint8 segmento_7;
  39:main.c        **** volatile uint8 comm=0001;
  40:main.c        **** char Concat5[5];
  41:main.c        **** char Concat1[1];
  42:main.c        **** void Activar_Conteo();
  43:main.c        **** void visualizacion(char *data_print); //isualizacion_de_datos
  44:main.c        **** //char *Numeros(uint8 vector[4]);
  45:main.c        **** //volatile uint8 Centena=0;
  46:main.c        **** //uint8 Seg_Conversion(char datay);
  47:main.c        **** void Num_to_String(uint16 Numero){
  48:main.c        ****    //Concat[4];
  49:main.c        ****    uint8 Temp1=(int)(Numero/1000);
  50:main.c        ****    uint8 Temp2=(int)((Numero-Temp1*1000)/100);
  51:main.c        ****    uint8 Temp3=(int)((Numero-Temp1*1000-Temp2*100)/10);
  52:main.c        ****    uint8 Temp4=Numero-Temp1*1000-Temp2*100-Temp3*10;
  53:main.c        ****    char T_Chain[5]={(char)Temp1+48,(char)Temp2+48,':',(char)Temp3+48,(char)Temp4+48};
  54:main.c        ****    //char *t_String=""; 
  55:main.c        ****    strcpy(Concat5,T_Chain);
  56:main.c        ****    //return t_String;
  57:main.c        **** }
  58:main.c        **** 
  59:main.c        **** //void Num_to_Char(uint8 Numero){
  60:main.c        **** void Switch_Conter(){
  61:main.c        ****   switch(cont_eventA){
  62:main.c        ****     case 1:
  63:main.c        ****      Decena_M=cont;    
  64:main.c        ****     break;
  65:main.c        ****     case 2:
  66:main.c        ****     Unidad_M=cont;
  67:main.c        ****     break;
  68:main.c        ****     case 3:
  69:main.c        ****     Decena_S=cont;
  70:main.c        ****     break;
  71:main.c        ****     case 4:
  72:main.c        ****     Unidad_S=cont;
  73:main.c        ****     break;
  74:main.c        ****     default:
  75:main.c        ****     
  76:main.c        ****     break;
  77:main.c        **** 
  78:main.c        ****   }
  79:main.c        **** }
  80:main.c        **** //
  81:main.c        **** void visual_Type(int x){
  82:main.c        ****   if(x==1){
  83:main.c        ****    Num_to_String(100*Minutos_N+Segundos_N);
  84:main.c        ****    Lcd_Juego_Position(1,8);
  85:main.c        ****    Lcd_Juego_PrintString(Concat5);
  86:main.c        ****   }else if(x==0){
  87:main.c        ****    Num_to_String(100*Minutos_B+Segundos_B);
ARM GAS  C:\Users\santa\AppData\Local\Temp\ccZlFtcN.s 			page 3


  88:main.c        ****    Lcd_Juego_Position(0,8);
  89:main.c        ****    Lcd_Juego_PrintString(Concat5);
  90:main.c        ****   }
  91:main.c        **** 
  92:main.c        **** }
  93:main.c        **** //
  94:main.c        **** ////
  95:main.c        **** 
  96:main.c        **** ////
  97:main.c        **** CY_ISR(Aceptar){
  98:main.c        ****     //  Pin_1_Write(1);
  99:main.c        ****      CyDelay(60);
 100:main.c        ****      int flag=0;
 101:main.c        ****     //count_int++;
 102:main.c        ****     
 103:main.c        ****     if(Aceptar_Read()!=1){
 104:main.c        ****     //Pin_1_Write(1);
 105:main.c        ****    CyDelay(20);
 106:main.c        ****     flag=1;
 107:main.c        ****     count_int=0;
 108:main.c        ****     }
 109:main.c        ****     
 110:main.c        ****     if(flag==1){
 111:main.c        ****       Pin_1_Write(1);
 112:main.c        ****       cont_eventA++;
 113:main.c        ****       if(cont_eventA>5){
 114:main.c        ****          cont_eventA=1;
 115:main.c        ****       }  
 116:main.c        ****       Switch_Conter();
 117:main.c        ****       if(cont_eventA==5 && Flag_Configuracion==1){
 118:main.c        ****         ///if(Flag)
 119:main.c        ****        Sref_N=10*Decena_S+Unidad_S;
 120:main.c        ****        Mref_N=10*Decena_M+Unidad_M;
 121:main.c        ****        Segundos_N=Sref_N;
 122:main.c        ****        Minutos_N=Mref_N;
 123:main.c        ****        visual_Type(1);
 124:main.c        ****        Timer_1_Start();
 125:main.c        ****       
 126:main.c        ****       }else if(cont_eventA==5 && Flag_Configuracion==0){
 127:main.c        ****        Sref_B=10*Decena_S+Unidad_S;
 128:main.c        ****        Mref_B=10*Decena_M+Unidad_M;
 129:main.c        ****        Segundos_B=Sref_B;
 130:main.c        ****        Minutos_B=Mref_B;
 131:main.c        ****        visual_Type(0);
 132:main.c        ****        Timer_1_Start();
 133:main.c        ****       }
 134:main.c        ****       
 135:main.c        ****     }
 136:main.c        ****     CyDelay(20);
 137:main.c        ****    Aceptar_ClearInterrupt();
 138:main.c        **** }
 139:main.c        **** //
 140:main.c        **** ////
 141:main.c        **** CY_ISR(Tiempos){
  28              		.loc 1 141 0
  29              		.cfi_startproc
  30              		@ args = 0, pretend = 0, frame = 0
ARM GAS  C:\Users\santa\AppData\Local\Temp\ccZlFtcN.s 			page 4


  31              		@ frame_needed = 0, uses_anonymous_args = 0
  32 0000 08B5     		push	{r3, lr}
  33              		.cfi_def_cfa_offset 8
  34              		.cfi_offset 3, -8
  35              		.cfi_offset 14, -4
 142:main.c        ****     // Pin_1_Write(1);
 143:main.c        ****     CyDelay(60);
  36              		.loc 1 143 0
  37 0002 3C20     		movs	r0, #60
  38 0004 FFF7FEFF 		bl	CyDelay
  39              	.LVL0:
 144:main.c        ****     int flag=0;
 145:main.c        ****     if(Tiempos_Read()!=1){
  40              		.loc 1 145 0
  41 0008 FFF7FEFF 		bl	Tiempos_Read
  42              	.LVL1:
  43 000c 0128     		cmp	r0, #1
  44 000e 07D0     		beq	.L4
 146:main.c        ****     //Pin_1_Write(1);
 147:main.c        ****     CyDelay(20);
  45              		.loc 1 147 0
  46 0010 1420     		movs	r0, #20
  47 0012 FFF7FEFF 		bl	CyDelay
  48              	.LVL2:
 148:main.c        ****     flag=1;
 149:main.c        ****     count_int=0;
  49              		.loc 1 149 0
  50 0016 0022     		movs	r2, #0
  51 0018 0D4B     		ldr	r3, .L6
  52 001a 1A70     		strb	r2, [r3]
 148:main.c        ****     flag=1;
  53              		.loc 1 148 0
  54 001c 0123     		movs	r3, #1
  55 001e 00E0     		b	.L2
  56              	.LVL3:
  57              	.L4:
 144:main.c        ****     if(Tiempos_Read()!=1){
  58              		.loc 1 144 0
  59 0020 0023     		movs	r3, #0
  60              	.LVL4:
  61              	.L2:
 150:main.c        ****     }
 151:main.c        ****      if(flag==1){
  62              		.loc 1 151 0
  63 0022 73B1     		cbz	r3, .L3
 152:main.c        ****         cont++;
  64              		.loc 1 152 0
  65 0024 0A4A     		ldr	r2, .L6
  66 0026 5378     		ldrb	r3, [r2, #1]	@ zero_extendqisi2
  67              	.LVL5:
  68 0028 0133     		adds	r3, r3, #1
  69 002a DBB2     		uxtb	r3, r3
  70 002c 5370     		strb	r3, [r2, #1]
 153:main.c        ****        if(cont==6){
  71              		.loc 1 153 0
  72 002e 5378     		ldrb	r3, [r2, #1]	@ zero_extendqisi2
  73 0030 DBB2     		uxtb	r3, r3
ARM GAS  C:\Users\santa\AppData\Local\Temp\ccZlFtcN.s 			page 5


  74 0032 062B     		cmp	r3, #6
  75 0034 05D1     		bne	.L3
 154:main.c        ****         cont=0;  
  76              		.loc 1 154 0
  77 0036 0022     		movs	r2, #0
  78 0038 054B     		ldr	r3, .L6
  79 003a 5A70     		strb	r2, [r3, #1]
 155:main.c        ****          Pin_1_Write(1);
  80              		.loc 1 155 0
  81 003c 0120     		movs	r0, #1
  82 003e FFF7FEFF 		bl	Pin_1_Write
  83              	.LVL6:
  84              	.L3:
 156:main.c        ****       }
 157:main.c        ****     }
 158:main.c        ****     CyDelay(20);
  85              		.loc 1 158 0
  86 0042 1420     		movs	r0, #20
  87 0044 FFF7FEFF 		bl	CyDelay
  88              	.LVL7:
 159:main.c        ****     Tiempos_ClearInterrupt();
  89              		.loc 1 159 0
  90 0048 FFF7FEFF 		bl	Tiempos_ClearInterrupt
  91              	.LVL8:
  92 004c 08BD     		pop	{r3, pc}
  93              	.L7:
  94 004e 00BF     		.align	2
  95              	.L6:
  96 0050 00000000 		.word	.LANCHOR0
  97              		.cfi_endproc
  98              	.LFE68:
  99              		.size	Tiempos, .-Tiempos
 100              		.section	.text.C_Negras,"ax",%progbits
 101              		.align	2
 102              		.global	C_Negras
 103              		.thumb
 104              		.thumb_func
 105              		.type	C_Negras, %function
 106              	C_Negras:
 107              	.LFB69:
 160:main.c        ****     //isr_Tiempos_ClearPending();
 161:main.c        **** }
 162:main.c        **** ////
 163:main.c        **** CY_ISR(C_Negras){
 108              		.loc 1 163 0
 109              		.cfi_startproc
 110              		@ args = 0, pretend = 0, frame = 0
 111              		@ frame_needed = 0, uses_anonymous_args = 0
 112 0000 08B5     		push	{r3, lr}
 113              		.cfi_def_cfa_offset 8
 114              		.cfi_offset 3, -8
 115              		.cfi_offset 14, -4
 116              	.LVL9:
 164:main.c        ****    //Pin_1_Write(1);
 165:main.c        ****     int flag=0;
 166:main.c        ****     CyDelay(60);
 117              		.loc 1 166 0
ARM GAS  C:\Users\santa\AppData\Local\Temp\ccZlFtcN.s 			page 6


 118 0002 3C20     		movs	r0, #60
 119 0004 FFF7FEFF 		bl	CyDelay
 120              	.LVL10:
 167:main.c        ****     if(C_Negras_Read()!=1){
 121              		.loc 1 167 0
 122 0008 FFF7FEFF 		bl	C_Negras_Read
 123              	.LVL11:
 124 000c 0128     		cmp	r0, #1
 125 000e 0AD0     		beq	.L11
 168:main.c        ****     Pin_1_Write(1);
 126              		.loc 1 168 0
 127 0010 0120     		movs	r0, #1
 128 0012 FFF7FEFF 		bl	Pin_1_Write
 129              	.LVL12:
 169:main.c        ****     CyDelay(20);
 130              		.loc 1 169 0
 131 0016 1420     		movs	r0, #20
 132 0018 FFF7FEFF 		bl	CyDelay
 133              	.LVL13:
 170:main.c        ****     flag=1;
 171:main.c        ****     count_int=0;
 134              		.loc 1 171 0
 135 001c 0022     		movs	r2, #0
 136 001e 064B     		ldr	r3, .L13
 137 0020 1A70     		strb	r2, [r3]
 170:main.c        ****     flag=1;
 138              		.loc 1 170 0
 139 0022 0123     		movs	r3, #1
 140 0024 00E0     		b	.L9
 141              	.LVL14:
 142              	.L11:
 165:main.c        ****     CyDelay(60);
 143              		.loc 1 165 0
 144 0026 0023     		movs	r3, #0
 145              	.LVL15:
 146              	.L9:
 172:main.c        ****     }
 173:main.c        ****     if(flag==1){
 147              		.loc 1 173 0
 148 0028 13B1     		cbz	r3, .L10
 174:main.c        ****       Flag_Configuracion=1;
 149              		.loc 1 174 0
 150 002a 0122     		movs	r2, #1
 151 002c 024B     		ldr	r3, .L13
 152              	.LVL16:
 153 002e 9A70     		strb	r2, [r3, #2]
 154              	.L10:
 175:main.c        ****     }
 176:main.c        ****     C_Negras_ClearInterrupt();
 155              		.loc 1 176 0
 156 0030 FFF7FEFF 		bl	C_Negras_ClearInterrupt
 157              	.LVL17:
 158 0034 08BD     		pop	{r3, pc}
 159              	.L14:
 160 0036 00BF     		.align	2
 161              	.L13:
 162 0038 00000000 		.word	.LANCHOR0
ARM GAS  C:\Users\santa\AppData\Local\Temp\ccZlFtcN.s 			page 7


 163              		.cfi_endproc
 164              	.LFE69:
 165              		.size	C_Negras, .-C_Negras
 166              		.section	.text.C_Blancas,"ax",%progbits
 167              		.align	2
 168              		.global	C_Blancas
 169              		.thumb
 170              		.thumb_func
 171              		.type	C_Blancas, %function
 172              	C_Blancas:
 173              	.LFB70:
 177:main.c        **** }
 178:main.c        **** 
 179:main.c        **** ////
 180:main.c        **** CY_ISR(C_Blancas){
 174              		.loc 1 180 0
 175              		.cfi_startproc
 176              		@ args = 0, pretend = 0, frame = 0
 177              		@ frame_needed = 0, uses_anonymous_args = 0
 178 0000 08B5     		push	{r3, lr}
 179              		.cfi_def_cfa_offset 8
 180              		.cfi_offset 3, -8
 181              		.cfi_offset 14, -4
 182              	.LVL18:
 181:main.c        ****     int flag=0;
 182:main.c        ****     CyDelay(60);
 183              		.loc 1 182 0
 184 0002 3C20     		movs	r0, #60
 185 0004 FFF7FEFF 		bl	CyDelay
 186              	.LVL19:
 183:main.c        ****     if(C_Blancas_Read()!=1){
 187              		.loc 1 183 0
 188 0008 FFF7FEFF 		bl	C_Blancas_Read
 189              	.LVL20:
 190 000c 0128     		cmp	r0, #1
 191 000e 07D0     		beq	.L18
 184:main.c        ****     Pin_1_Write(1);
 192              		.loc 1 184 0
 193 0010 0120     		movs	r0, #1
 194 0012 FFF7FEFF 		bl	Pin_1_Write
 195              	.LVL21:
 185:main.c        ****     CyDelay(20);
 196              		.loc 1 185 0
 197 0016 1420     		movs	r0, #20
 198 0018 FFF7FEFF 		bl	CyDelay
 199              	.LVL22:
 186:main.c        ****     flag=1;
 200              		.loc 1 186 0
 201 001c 0123     		movs	r3, #1
 202 001e 00E0     		b	.L16
 203              	.LVL23:
 204              	.L18:
 181:main.c        ****     CyDelay(60);
 205              		.loc 1 181 0
 206 0020 0023     		movs	r3, #0
 207              	.LVL24:
 208              	.L16:
ARM GAS  C:\Users\santa\AppData\Local\Temp\ccZlFtcN.s 			page 8


 187:main.c        ****     //count_int=0;
 188:main.c        ****     }
 189:main.c        ****     if(flag==1){
 209              		.loc 1 189 0
 210 0022 13B1     		cbz	r3, .L17
 190:main.c        ****       Flag_Configuracion=0;
 211              		.loc 1 190 0
 212 0024 0022     		movs	r2, #0
 213 0026 024B     		ldr	r3, .L20
 214              	.LVL25:
 215 0028 9A70     		strb	r2, [r3, #2]
 216              	.L17:
 191:main.c        ****     }
 192:main.c        ****     C_Blancas_ClearInterrupt();
 217              		.loc 1 192 0
 218 002a FFF7FEFF 		bl	C_Blancas_ClearInterrupt
 219              	.LVL26:
 220 002e 08BD     		pop	{r3, pc}
 221              	.L21:
 222              		.align	2
 223              	.L20:
 224 0030 00000000 		.word	.LANCHOR0
 225              		.cfi_endproc
 226              	.LFE70:
 227              		.size	C_Blancas, .-C_Blancas
 228              		.section	.text.Num_to_String,"ax",%progbits
 229              		.align	2
 230              		.global	Num_to_String
 231              		.thumb
 232              		.thumb_func
 233              		.type	Num_to_String, %function
 234              	Num_to_String:
 235              	.LFB64:
  47:main.c        ****    //Concat[4];
 236              		.loc 1 47 0
 237              		.cfi_startproc
 238              		@ args = 0, pretend = 0, frame = 8
 239              		@ frame_needed = 0, uses_anonymous_args = 0
 240              	.LVL27:
 241 0000 70B5     		push	{r4, r5, r6, lr}
 242              		.cfi_def_cfa_offset 16
 243              		.cfi_offset 4, -16
 244              		.cfi_offset 5, -12
 245              		.cfi_offset 6, -8
 246              		.cfi_offset 14, -4
 247 0002 82B0     		sub	sp, sp, #8
 248              		.cfi_def_cfa_offset 24
  49:main.c        ****    uint8 Temp2=(int)((Numero-Temp1*1000)/100);
 249              		.loc 1 49 0
 250 0004 1F4D     		ldr	r5, .L24
 251 0006 A5FB0035 		umull	r3, r5, r5, r0
 252 000a AD09     		lsrs	r5, r5, #6
 253              	.LVL28:
  50:main.c        ****    uint8 Temp3=(int)((Numero-Temp1*1000-Temp2*100)/10);
 254              		.loc 1 50 0
 255 000c 1E49     		ldr	r1, .L24+4
 256 000e 01FB0502 		mla	r2, r1, r5, r0
ARM GAS  C:\Users\santa\AppData\Local\Temp\ccZlFtcN.s 			page 9


 257 0012 1E49     		ldr	r1, .L24+8
 258 0014 81FB0231 		smull	r3, r1, r1, r2
 259 0018 D317     		asrs	r3, r2, #31
 260 001a C3EB6111 		rsb	r1, r3, r1, asr #5
 261 001e CCB2     		uxtb	r4, r1
 262              	.LVL29:
  51:main.c        ****    uint8 Temp4=Numero-Temp1*1000-Temp2*100-Temp3*10;
 263              		.loc 1 51 0
 264 0020 6FF06303 		mvn	r3, #99
 265 0024 03FB0421 		mla	r1, r3, r4, r2
 266 0028 194B     		ldr	r3, .L24+12
 267 002a 83FB0123 		smull	r2, r3, r3, r1
 268 002e C917     		asrs	r1, r1, #31
 269 0030 C1EBA303 		rsb	r3, r1, r3, asr #2
 270 0034 DBB2     		uxtb	r3, r3
 271              	.LVL30:
  52:main.c        ****    char T_Chain[5]={(char)Temp1+48,(char)Temp2+48,':',(char)Temp3+48,(char)Temp4+48};
 272              		.loc 1 52 0
 273 0036 04EB8401 		add	r1, r4, r4, lsl #2
 274 003a C4EBC101 		rsb	r1, r4, r1, lsl #3
 275 003e 8E00     		lsls	r6, r1, #2
 276 0040 05EB4501 		add	r1, r5, r5, lsl #1
 277 0044 CA00     		lsls	r2, r1, #3
 278 0046 3244     		add	r2, r2, r6
 279 0048 1044     		add	r0, r0, r2
 280              	.LVL31:
 281 004a C3EB4311 		rsb	r1, r3, r3, lsl #5
 282 004e C3EB8101 		rsb	r1, r3, r1, lsl #2
 283 0052 4A00     		lsls	r2, r1, #1
 284 0054 0244     		add	r2, r2, r0
 285 0056 D2B2     		uxtb	r2, r2
 286              	.LVL32:
  53:main.c        ****    //char *t_String=""; 
 287              		.loc 1 53 0
 288 0058 3035     		adds	r5, r5, #48
 289              	.LVL33:
 290 005a 8DF80050 		strb	r5, [sp]
 291 005e 04F13001 		add	r1, r4, #48
 292 0062 8DF80110 		strb	r1, [sp, #1]
 293 0066 3A21     		movs	r1, #58
 294 0068 8DF80210 		strb	r1, [sp, #2]
 295 006c 3033     		adds	r3, r3, #48
 296              	.LVL34:
 297 006e 8DF80330 		strb	r3, [sp, #3]
 298 0072 3032     		adds	r2, r2, #48
 299              	.LVL35:
 300 0074 8DF80420 		strb	r2, [sp, #4]
  55:main.c        ****    //return t_String;
 301              		.loc 1 55 0
 302 0078 6946     		mov	r1, sp
 303 007a 0648     		ldr	r0, .L24+16
 304 007c FFF7FEFF 		bl	strcpy
 305              	.LVL36:
  57:main.c        **** 
 306              		.loc 1 57 0
 307 0080 02B0     		add	sp, sp, #8
 308              		.cfi_def_cfa_offset 16
ARM GAS  C:\Users\santa\AppData\Local\Temp\ccZlFtcN.s 			page 10


 309              		@ sp needed
 310 0082 70BD     		pop	{r4, r5, r6, pc}
 311              	.LVL37:
 312              	.L25:
 313              		.align	2
 314              	.L24:
 315 0084 D34D6210 		.word	274877907
 316 0088 18FCFFFF 		.word	-1000
 317 008c 1F85EB51 		.word	1374389535
 318 0090 67666666 		.word	1717986919
 319 0094 00000000 		.word	Concat5
 320              		.cfi_endproc
 321              	.LFE64:
 322              		.size	Num_to_String, .-Num_to_String
 323              		.section	.text.Switch_Conter,"ax",%progbits
 324              		.align	2
 325              		.global	Switch_Conter
 326              		.thumb
 327              		.thumb_func
 328              		.type	Switch_Conter, %function
 329              	Switch_Conter:
 330              	.LFB65:
  60:main.c        ****   switch(cont_eventA){
 331              		.loc 1 60 0
 332              		.cfi_startproc
 333              		@ args = 0, pretend = 0, frame = 0
 334              		@ frame_needed = 0, uses_anonymous_args = 0
 335              		@ link register save eliminated.
  61:main.c        ****     case 1:
 336              		.loc 1 61 0
 337 0000 0E4B     		ldr	r3, .L33
 338 0002 DB78     		ldrb	r3, [r3, #3]	@ zero_extendqisi2
 339 0004 013B     		subs	r3, r3, #1
 340 0006 032B     		cmp	r3, #3
 341 0008 16D8     		bhi	.L26
 342 000a DFE803F0 		tbb	[pc, r3]
 343              	.L29:
 344 000e 02       		.byte	(.L28-.L29)/2
 345 000f 07       		.byte	(.L30-.L29)/2
 346 0010 0C       		.byte	(.L31-.L29)/2
 347 0011 11       		.byte	(.L32-.L29)/2
 348              		.p2align 1
 349              	.L28:
  63:main.c        ****     break;
 350              		.loc 1 63 0
 351 0012 0A4A     		ldr	r2, .L33
 352 0014 5378     		ldrb	r3, [r2, #1]	@ zero_extendqisi2
 353 0016 DBB2     		uxtb	r3, r3
 354 0018 1371     		strb	r3, [r2, #4]
  64:main.c        ****     case 2:
 355              		.loc 1 64 0
 356 001a 7047     		bx	lr
 357              	.L30:
  66:main.c        ****     break;
 358              		.loc 1 66 0
 359 001c 074A     		ldr	r2, .L33
 360 001e 5378     		ldrb	r3, [r2, #1]	@ zero_extendqisi2
ARM GAS  C:\Users\santa\AppData\Local\Temp\ccZlFtcN.s 			page 11


 361 0020 DBB2     		uxtb	r3, r3
 362 0022 5371     		strb	r3, [r2, #5]
  67:main.c        ****     case 3:
 363              		.loc 1 67 0
 364 0024 7047     		bx	lr
 365              	.L31:
  69:main.c        ****     break;
 366              		.loc 1 69 0
 367 0026 054A     		ldr	r2, .L33
 368 0028 5378     		ldrb	r3, [r2, #1]	@ zero_extendqisi2
 369 002a DBB2     		uxtb	r3, r3
 370 002c 9371     		strb	r3, [r2, #6]
  70:main.c        ****     case 4:
 371              		.loc 1 70 0
 372 002e 7047     		bx	lr
 373              	.L32:
  72:main.c        ****     break;
 374              		.loc 1 72 0
 375 0030 024A     		ldr	r2, .L33
 376 0032 5378     		ldrb	r3, [r2, #1]	@ zero_extendqisi2
 377 0034 DBB2     		uxtb	r3, r3
 378 0036 D371     		strb	r3, [r2, #7]
 379              	.L26:
 380 0038 7047     		bx	lr
 381              	.L34:
 382 003a 00BF     		.align	2
 383              	.L33:
 384 003c 00000000 		.word	.LANCHOR0
 385              		.cfi_endproc
 386              	.LFE65:
 387              		.size	Switch_Conter, .-Switch_Conter
 388              		.section	.text.visual_Type,"ax",%progbits
 389              		.align	2
 390              		.global	visual_Type
 391              		.thumb
 392              		.thumb_func
 393              		.type	visual_Type, %function
 394              	visual_Type:
 395              	.LFB66:
  81:main.c        ****   if(x==1){
 396              		.loc 1 81 0
 397              		.cfi_startproc
 398              		@ args = 0, pretend = 0, frame = 0
 399              		@ frame_needed = 0, uses_anonymous_args = 0
 400              	.LVL38:
 401 0000 08B5     		push	{r3, lr}
 402              		.cfi_def_cfa_offset 8
 403              		.cfi_offset 3, -8
 404              		.cfi_offset 14, -4
  82:main.c        ****    Num_to_String(100*Minutos_N+Segundos_N);
 405              		.loc 1 82 0
 406 0002 0128     		cmp	r0, #1
 407 0004 16D1     		bne	.L36
  83:main.c        ****    Lcd_Juego_Position(1,8);
 408              		.loc 1 83 0
 409 0006 174B     		ldr	r3, .L39
 410 0008 1B88     		ldrh	r3, [r3]
ARM GAS  C:\Users\santa\AppData\Local\Temp\ccZlFtcN.s 			page 12


 411 000a 9BB2     		uxth	r3, r3
 412 000c 164A     		ldr	r2, .L39+4
 413 000e 1089     		ldrh	r0, [r2, #8]
 414              	.LVL39:
 415 0010 80B2     		uxth	r0, r0
 416 0012 03EB8303 		add	r3, r3, r3, lsl #2
 417 0016 03EB8303 		add	r3, r3, r3, lsl #2
 418 001a 9A00     		lsls	r2, r3, #2
 419 001c 1044     		add	r0, r0, r2
 420 001e 80B2     		uxth	r0, r0
 421 0020 FFF7FEFF 		bl	Num_to_String
 422              	.LVL40:
  84:main.c        ****    Lcd_Juego_PrintString(Concat5);
 423              		.loc 1 84 0
 424 0024 0821     		movs	r1, #8
 425 0026 0120     		movs	r0, #1
 426 0028 FFF7FEFF 		bl	Lcd_Juego_Position
 427              	.LVL41:
  85:main.c        ****   }else if(x==0){
 428              		.loc 1 85 0
 429 002c 0F48     		ldr	r0, .L39+8
 430 002e FFF7FEFF 		bl	Lcd_Juego_PrintString
 431              	.LVL42:
 432 0032 08BD     		pop	{r3, pc}
 433              	.LVL43:
 434              	.L36:
  86:main.c        ****    Num_to_String(100*Minutos_B+Segundos_B);
 435              		.loc 1 86 0
 436 0034 A8B9     		cbnz	r0, .L35
  87:main.c        ****    Lcd_Juego_Position(0,8);
 437              		.loc 1 87 0
 438 0036 0C4B     		ldr	r3, .L39+4
 439 0038 5B89     		ldrh	r3, [r3, #10]
 440 003a 9BB2     		uxth	r3, r3
 441 003c 0C4A     		ldr	r2, .L39+12
 442 003e 1088     		ldrh	r0, [r2]
 443              	.LVL44:
 444 0040 80B2     		uxth	r0, r0
 445 0042 03EB8303 		add	r3, r3, r3, lsl #2
 446 0046 03EB8303 		add	r3, r3, r3, lsl #2
 447 004a 9A00     		lsls	r2, r3, #2
 448 004c 1044     		add	r0, r0, r2
 449 004e 80B2     		uxth	r0, r0
 450 0050 FFF7FEFF 		bl	Num_to_String
 451              	.LVL45:
  88:main.c        ****    Lcd_Juego_PrintString(Concat5);
 452              		.loc 1 88 0
 453 0054 0821     		movs	r1, #8
 454 0056 0020     		movs	r0, #0
 455 0058 FFF7FEFF 		bl	Lcd_Juego_Position
 456              	.LVL46:
  89:main.c        ****   }
 457              		.loc 1 89 0
 458 005c 0348     		ldr	r0, .L39+8
 459 005e FFF7FEFF 		bl	Lcd_Juego_PrintString
 460              	.LVL47:
 461              	.L35:
ARM GAS  C:\Users\santa\AppData\Local\Temp\ccZlFtcN.s 			page 13


 462 0062 08BD     		pop	{r3, pc}
 463              	.L40:
 464              		.align	2
 465              	.L39:
 466 0064 00000000 		.word	Minutos_N
 467 0068 00000000 		.word	.LANCHOR0
 468 006c 00000000 		.word	Concat5
 469 0070 00000000 		.word	Segundos_B
 470              		.cfi_endproc
 471              	.LFE66:
 472              		.size	visual_Type, .-visual_Type
 473              		.section	.text.Aceptar,"ax",%progbits
 474              		.align	2
 475              		.global	Aceptar
 476              		.thumb
 477              		.thumb_func
 478              		.type	Aceptar, %function
 479              	Aceptar:
 480              	.LFB67:
  97:main.c        ****     //  Pin_1_Write(1);
 481              		.loc 1 97 0
 482              		.cfi_startproc
 483              		@ args = 0, pretend = 0, frame = 0
 484              		@ frame_needed = 0, uses_anonymous_args = 0
 485 0000 10B5     		push	{r4, lr}
 486              		.cfi_def_cfa_offset 8
 487              		.cfi_offset 4, -8
 488              		.cfi_offset 14, -4
  99:main.c        ****      int flag=0;
 489              		.loc 1 99 0
 490 0002 3C20     		movs	r0, #60
 491 0004 FFF7FEFF 		bl	CyDelay
 492              	.LVL48:
 103:main.c        ****     //Pin_1_Write(1);
 493              		.loc 1 103 0
 494 0008 FFF7FEFF 		bl	Aceptar_Read
 495              	.LVL49:
 496 000c 0128     		cmp	r0, #1
 497 000e 07D0     		beq	.L46
 105:main.c        ****     flag=1;
 498              		.loc 1 105 0
 499 0010 1420     		movs	r0, #20
 500 0012 FFF7FEFF 		bl	CyDelay
 501              	.LVL50:
 107:main.c        ****     }
 502              		.loc 1 107 0
 503 0016 0022     		movs	r2, #0
 504 0018 374B     		ldr	r3, .L48
 505 001a 1A70     		strb	r2, [r3]
 106:main.c        ****     count_int=0;
 506              		.loc 1 106 0
 507 001c 0123     		movs	r3, #1
 508 001e 00E0     		b	.L42
 509              	.LVL51:
 510              	.L46:
 100:main.c        ****     //count_int++;
 511              		.loc 1 100 0
ARM GAS  C:\Users\santa\AppData\Local\Temp\ccZlFtcN.s 			page 14


 512 0020 0023     		movs	r3, #0
 513              	.LVL52:
 514              	.L42:
 110:main.c        ****       Pin_1_Write(1);
 515              		.loc 1 110 0
 516 0022 002B     		cmp	r3, #0
 517 0024 61D0     		beq	.L43
 111:main.c        ****       cont_eventA++;
 518              		.loc 1 111 0
 519 0026 0120     		movs	r0, #1
 520 0028 FFF7FEFF 		bl	Pin_1_Write
 521              	.LVL53:
 112:main.c        ****       if(cont_eventA>5){
 522              		.loc 1 112 0
 523 002c 324A     		ldr	r2, .L48
 524 002e D378     		ldrb	r3, [r2, #3]	@ zero_extendqisi2
 525 0030 0133     		adds	r3, r3, #1
 526 0032 DBB2     		uxtb	r3, r3
 527 0034 D370     		strb	r3, [r2, #3]
 113:main.c        ****          cont_eventA=1;
 528              		.loc 1 113 0
 529 0036 D378     		ldrb	r3, [r2, #3]	@ zero_extendqisi2
 530 0038 DBB2     		uxtb	r3, r3
 531 003a 052B     		cmp	r3, #5
 532 003c 02D9     		bls	.L44
 114:main.c        ****       }  
 533              		.loc 1 114 0
 534 003e 0122     		movs	r2, #1
 535 0040 2D4B     		ldr	r3, .L48
 536 0042 DA70     		strb	r2, [r3, #3]
 537              	.L44:
 116:main.c        ****       if(cont_eventA==5 && Flag_Configuracion==1){
 538              		.loc 1 116 0
 539 0044 FFF7FEFF 		bl	Switch_Conter
 540              	.LVL54:
 117:main.c        ****         ///if(Flag)
 541              		.loc 1 117 0
 542 0048 2B4B     		ldr	r3, .L48
 543 004a DB78     		ldrb	r3, [r3, #3]	@ zero_extendqisi2
 544 004c DBB2     		uxtb	r3, r3
 545 004e 052B     		cmp	r3, #5
 546 0050 24D1     		bne	.L45
 117:main.c        ****         ///if(Flag)
 547              		.loc 1 117 0 is_stmt 0 discriminator 1
 548 0052 294B     		ldr	r3, .L48
 549 0054 9B78     		ldrb	r3, [r3, #2]	@ zero_extendqisi2
 550 0056 DBB2     		uxtb	r3, r3
 551 0058 012B     		cmp	r3, #1
 552 005a 1FD1     		bne	.L45
 119:main.c        ****        Mref_N=10*Decena_M+Unidad_M;
 553              		.loc 1 119 0 is_stmt 1
 554 005c 264A     		ldr	r2, .L48
 555 005e 9179     		ldrb	r1, [r2, #6]	@ zero_extendqisi2
 556 0060 D079     		ldrb	r0, [r2, #7]	@ zero_extendqisi2
 557 0062 01EB8101 		add	r1, r1, r1, lsl #2
 558 0066 4B00     		lsls	r3, r1, #1
 559 0068 0344     		add	r3, r3, r0
ARM GAS  C:\Users\santa\AppData\Local\Temp\ccZlFtcN.s 			page 15


 560 006a 9BB2     		uxth	r3, r3
 561 006c 2348     		ldr	r0, .L48+4
 562 006e 0380     		strh	r3, [r0]	@ movhi
 120:main.c        ****        Segundos_N=Sref_N;
 563              		.loc 1 120 0
 564 0070 1179     		ldrb	r1, [r2, #4]	@ zero_extendqisi2
 565 0072 5479     		ldrb	r4, [r2, #5]	@ zero_extendqisi2
 566 0074 01EB8101 		add	r1, r1, r1, lsl #2
 567 0078 4B00     		lsls	r3, r1, #1
 568 007a 2344     		add	r3, r3, r4
 569 007c 9BB2     		uxth	r3, r3
 570 007e 2049     		ldr	r1, .L48+8
 571 0080 0B80     		strh	r3, [r1]	@ movhi
 121:main.c        ****        Minutos_N=Mref_N;
 572              		.loc 1 121 0
 573 0082 0388     		ldrh	r3, [r0]
 574 0084 9BB2     		uxth	r3, r3
 575 0086 1381     		strh	r3, [r2, #8]	@ movhi
 122:main.c        ****        visual_Type(1);
 576              		.loc 1 122 0
 577 0088 0B88     		ldrh	r3, [r1]
 578 008a 9BB2     		uxth	r3, r3
 579 008c 1D4A     		ldr	r2, .L48+12
 580 008e 1380     		strh	r3, [r2]	@ movhi
 123:main.c        ****        Timer_1_Start();
 581              		.loc 1 123 0
 582 0090 0120     		movs	r0, #1
 583 0092 FFF7FEFF 		bl	visual_Type
 584              	.LVL55:
 124:main.c        ****       
 585              		.loc 1 124 0
 586 0096 FFF7FEFF 		bl	Timer_1_Start
 587              	.LVL56:
 588 009a 26E0     		b	.L43
 589              	.L45:
 126:main.c        ****        Sref_B=10*Decena_S+Unidad_S;
 590              		.loc 1 126 0
 591 009c 164B     		ldr	r3, .L48
 592 009e DB78     		ldrb	r3, [r3, #3]	@ zero_extendqisi2
 593 00a0 DBB2     		uxtb	r3, r3
 594 00a2 052B     		cmp	r3, #5
 595 00a4 21D1     		bne	.L43
 126:main.c        ****        Sref_B=10*Decena_S+Unidad_S;
 596              		.loc 1 126 0 is_stmt 0 discriminator 1
 597 00a6 144B     		ldr	r3, .L48
 598 00a8 9B78     		ldrb	r3, [r3, #2]	@ zero_extendqisi2
 599 00aa 13F0FF0F 		tst	r3, #255
 600 00ae 1CD1     		bne	.L43
 127:main.c        ****        Mref_B=10*Decena_M+Unidad_M;
 601              		.loc 1 127 0 is_stmt 1
 602 00b0 114B     		ldr	r3, .L48
 603 00b2 9979     		ldrb	r1, [r3, #6]	@ zero_extendqisi2
 604 00b4 D879     		ldrb	r0, [r3, #7]	@ zero_extendqisi2
 605 00b6 01EB8101 		add	r1, r1, r1, lsl #2
 606 00ba 4A00     		lsls	r2, r1, #1
 607 00bc 0244     		add	r2, r2, r0
 608 00be 92B2     		uxth	r2, r2
ARM GAS  C:\Users\santa\AppData\Local\Temp\ccZlFtcN.s 			page 16


 609 00c0 9A81     		strh	r2, [r3, #12]	@ movhi
 128:main.c        ****        Segundos_B=Sref_B;
 610              		.loc 1 128 0
 611 00c2 1979     		ldrb	r1, [r3, #4]	@ zero_extendqisi2
 612 00c4 5879     		ldrb	r0, [r3, #5]	@ zero_extendqisi2
 613 00c6 01EB8101 		add	r1, r1, r1, lsl #2
 614 00ca 4A00     		lsls	r2, r1, #1
 615 00cc 0244     		add	r2, r2, r0
 616 00ce 92B2     		uxth	r2, r2
 617 00d0 DA81     		strh	r2, [r3, #14]	@ movhi
 129:main.c        ****        Minutos_B=Mref_B;
 618              		.loc 1 129 0
 619 00d2 9A89     		ldrh	r2, [r3, #12]
 620 00d4 92B2     		uxth	r2, r2
 621 00d6 0C49     		ldr	r1, .L48+16
 622 00d8 0A80     		strh	r2, [r1]	@ movhi
 130:main.c        ****        visual_Type(0);
 623              		.loc 1 130 0
 624 00da DA89     		ldrh	r2, [r3, #14]
 625 00dc 92B2     		uxth	r2, r2
 626 00de 5A81     		strh	r2, [r3, #10]	@ movhi
 131:main.c        ****        Timer_1_Start();
 627              		.loc 1 131 0
 628 00e0 0020     		movs	r0, #0
 629 00e2 FFF7FEFF 		bl	visual_Type
 630              	.LVL57:
 132:main.c        ****       }
 631              		.loc 1 132 0
 632 00e6 FFF7FEFF 		bl	Timer_1_Start
 633              	.LVL58:
 634              	.L43:
 136:main.c        ****    Aceptar_ClearInterrupt();
 635              		.loc 1 136 0
 636 00ea 1420     		movs	r0, #20
 637 00ec FFF7FEFF 		bl	CyDelay
 638              	.LVL59:
 137:main.c        **** }
 639              		.loc 1 137 0
 640 00f0 FFF7FEFF 		bl	Aceptar_ClearInterrupt
 641              	.LVL60:
 642 00f4 10BD     		pop	{r4, pc}
 643              	.L49:
 644 00f6 00BF     		.align	2
 645              	.L48:
 646 00f8 00000000 		.word	.LANCHOR0
 647 00fc 00000000 		.word	Sref_N
 648 0100 00000000 		.word	Mref_N
 649 0104 00000000 		.word	Minutos_N
 650 0108 00000000 		.word	Segundos_B
 651              		.cfi_endproc
 652              	.LFE67:
 653              		.size	Aceptar, .-Aceptar
 654              		.section	.text.Timer,"ax",%progbits
 655              		.align	2
 656              		.global	Timer
 657              		.thumb
 658              		.thumb_func
ARM GAS  C:\Users\santa\AppData\Local\Temp\ccZlFtcN.s 			page 17


 659              		.type	Timer, %function
 660              	Timer:
 661              	.LFB71:
 193:main.c        **** }
 194:main.c        **** //
 195:main.c        **** //
 196:main.c        **** CY_ISR(Timer)
 197:main.c        **** {
 662              		.loc 1 197 0
 663              		.cfi_startproc
 664              		@ args = 0, pretend = 0, frame = 0
 665              		@ frame_needed = 0, uses_anonymous_args = 0
 666 0000 10B5     		push	{r4, lr}
 667              		.cfi_def_cfa_offset 8
 668              		.cfi_offset 4, -8
 669              		.cfi_offset 14, -4
 198:main.c        ****    uint16 total_ref=(Flag_Configuracion==1?Minutos_B+Segundos_B:Minutos_N+Segundos_N);
 670              		.loc 1 198 0
 671 0002 394B     		ldr	r3, .L61
 672 0004 9B78     		ldrb	r3, [r3, #2]	@ zero_extendqisi2
 673 0006 DBB2     		uxtb	r3, r3
 674 0008 012B     		cmp	r3, #1
 675 000a 08D1     		bne	.L51
 676              		.loc 1 198 0 is_stmt 0 discriminator 1
 677 000c 364B     		ldr	r3, .L61
 678 000e 5C89     		ldrh	r4, [r3, #10]
 679 0010 A4B2     		uxth	r4, r4
 680 0012 364B     		ldr	r3, .L61+4
 681 0014 1B88     		ldrh	r3, [r3]
 682 0016 9BB2     		uxth	r3, r3
 683 0018 1C44     		add	r4, r4, r3
 684 001a A4B2     		uxth	r4, r4
 685 001c 07E0     		b	.L52
 686              	.L51:
 687              		.loc 1 198 0 discriminator 2
 688 001e 344B     		ldr	r3, .L61+8
 689 0020 1C88     		ldrh	r4, [r3]
 690 0022 A4B2     		uxth	r4, r4
 691 0024 304B     		ldr	r3, .L61
 692 0026 1B89     		ldrh	r3, [r3, #8]
 693 0028 9BB2     		uxth	r3, r3
 694 002a 1C44     		add	r4, r4, r3
 695 002c A4B2     		uxth	r4, r4
 696              	.L52:
 697              	.LVL61:
 199:main.c        ****    //
 200:main.c        ****     if(Flag_Configuracion==1){
 698              		.loc 1 200 0 is_stmt 1 discriminator 4
 699 002e 2E4B     		ldr	r3, .L61
 700 0030 9B78     		ldrb	r3, [r3, #2]	@ zero_extendqisi2
 701 0032 DBB2     		uxtb	r3, r3
 702 0034 012B     		cmp	r3, #1
 703 0036 03D1     		bne	.L53
 201:main.c        ****       visual_Type(1);
 704              		.loc 1 201 0
 705 0038 0120     		movs	r0, #1
 706 003a FFF7FEFF 		bl	visual_Type
ARM GAS  C:\Users\santa\AppData\Local\Temp\ccZlFtcN.s 			page 18


 707              	.LVL62:
 708 003e 02E0     		b	.L54
 709              	.L53:
 202:main.c        ****     }else{
 203:main.c        ****       visual_Type(0);
 710              		.loc 1 203 0
 711 0040 0020     		movs	r0, #0
 712 0042 FFF7FEFF 		bl	visual_Type
 713              	.LVL63:
 714              	.L54:
 204:main.c        ****     }
 205:main.c        **** ////  //Segundos--;
 206:main.c        ****     if(Segundos_N>0 && Flag_Configuracion==1){
 715              		.loc 1 206 0
 716 0046 284B     		ldr	r3, .L61
 717 0048 1B89     		ldrh	r3, [r3, #8]
 718 004a 9BB2     		uxth	r3, r3
 719 004c 5BB1     		cbz	r3, .L55
 720              		.loc 1 206 0 is_stmt 0 discriminator 1
 721 004e 264B     		ldr	r3, .L61
 722 0050 9B78     		ldrb	r3, [r3, #2]	@ zero_extendqisi2
 723 0052 DBB2     		uxtb	r3, r3
 724 0054 012B     		cmp	r3, #1
 725 0056 06D1     		bne	.L55
 207:main.c        ****       Segundos_N--;
 726              		.loc 1 207 0 is_stmt 1
 727 0058 234A     		ldr	r2, .L61
 728 005a 1389     		ldrh	r3, [r2, #8]
 729 005c 9BB2     		uxth	r3, r3
 730 005e 013B     		subs	r3, r3, #1
 731 0060 9BB2     		uxth	r3, r3
 732 0062 1381     		strh	r3, [r2, #8]	@ movhi
 733 0064 36E0     		b	.L56
 734              	.L55:
 208:main.c        ****     //Minutos--;
 209:main.c        ****      }else if(total_ref!=0 && Flag_Configuracion==1 && Segundos_N==0){
 735              		.loc 1 209 0
 736 0066 94B1     		cbz	r4, .L57
 737              		.loc 1 209 0 is_stmt 0 discriminator 1
 738 0068 1F4B     		ldr	r3, .L61
 739 006a 9B78     		ldrb	r3, [r3, #2]	@ zero_extendqisi2
 740 006c DBB2     		uxtb	r3, r3
 741 006e 012B     		cmp	r3, #1
 742 0070 0DD1     		bne	.L57
 743              		.loc 1 209 0 discriminator 2
 744 0072 1D4B     		ldr	r3, .L61
 745 0074 1B89     		ldrh	r3, [r3, #8]
 746 0076 9BB2     		uxth	r3, r3
 747 0078 4BB9     		cbnz	r3, .L57
 210:main.c        ****      Minutos_N--; 
 748              		.loc 1 210 0 is_stmt 1
 749 007a 1D4A     		ldr	r2, .L61+8
 750 007c 1388     		ldrh	r3, [r2]
 751 007e 9BB2     		uxth	r3, r3
 752 0080 013B     		subs	r3, r3, #1
 753 0082 9BB2     		uxth	r3, r3
 754 0084 1380     		strh	r3, [r2]	@ movhi
ARM GAS  C:\Users\santa\AppData\Local\Temp\ccZlFtcN.s 			page 19


 211:main.c        ****      Segundos_N=59;
 755              		.loc 1 211 0
 756 0086 3B22     		movs	r2, #59
 757 0088 174B     		ldr	r3, .L61
 758 008a 1A81     		strh	r2, [r3, #8]	@ movhi
 759 008c 22E0     		b	.L56
 760              	.L57:
 212:main.c        ****     }else if(Segundos_B>0 && Flag_Configuracion==0){
 761              		.loc 1 212 0
 762 008e 174B     		ldr	r3, .L61+4
 763 0090 1B88     		ldrh	r3, [r3]
 764 0092 9BB2     		uxth	r3, r3
 765 0094 5BB1     		cbz	r3, .L58
 766              		.loc 1 212 0 is_stmt 0 discriminator 1
 767 0096 144B     		ldr	r3, .L61
 768 0098 9B78     		ldrb	r3, [r3, #2]	@ zero_extendqisi2
 769 009a 13F0FF0F 		tst	r3, #255
 770 009e 06D1     		bne	.L58
 213:main.c        ****      Segundos_B--;
 771              		.loc 1 213 0 is_stmt 1
 772 00a0 124A     		ldr	r2, .L61+4
 773 00a2 1388     		ldrh	r3, [r2]
 774 00a4 9BB2     		uxth	r3, r3
 775 00a6 013B     		subs	r3, r3, #1
 776 00a8 9BB2     		uxth	r3, r3
 777 00aa 1380     		strh	r3, [r2]	@ movhi
 778 00ac 12E0     		b	.L56
 779              	.L58:
 214:main.c        ****      }else if(Segundos_B==0 && Flag_Configuracion==0 && total_ref!=0){
 780              		.loc 1 214 0
 781 00ae 0F4B     		ldr	r3, .L61+4
 782 00b0 1B88     		ldrh	r3, [r3]
 783 00b2 9BB2     		uxth	r3, r3
 784 00b4 73B9     		cbnz	r3, .L56
 785              		.loc 1 214 0 is_stmt 0 discriminator 1
 786 00b6 0C4B     		ldr	r3, .L61
 787 00b8 9B78     		ldrb	r3, [r3, #2]	@ zero_extendqisi2
 788 00ba 13F0FF0F 		tst	r3, #255
 789 00be 09D1     		bne	.L56
 790              		.loc 1 214 0 discriminator 2
 791 00c0 44B1     		cbz	r4, .L56
 215:main.c        ****      Minutos_B--;
 792              		.loc 1 215 0 is_stmt 1
 793 00c2 094A     		ldr	r2, .L61
 794 00c4 5389     		ldrh	r3, [r2, #10]
 795 00c6 9BB2     		uxth	r3, r3
 796 00c8 013B     		subs	r3, r3, #1
 797 00ca 9BB2     		uxth	r3, r3
 798 00cc 5381     		strh	r3, [r2, #10]	@ movhi
 216:main.c        ****      Segundos_B=59;
 799              		.loc 1 216 0
 800 00ce 3B22     		movs	r2, #59
 801 00d0 064B     		ldr	r3, .L61+4
 802 00d2 1A80     		strh	r2, [r3]	@ movhi
 803              	.L56:
 217:main.c        ****      }
 218:main.c        ****      if(total_ref==0){
ARM GAS  C:\Users\santa\AppData\Local\Temp\ccZlFtcN.s 			page 20


 804              		.loc 1 218 0
 805 00d4 24B9     		cbnz	r4, .L59
 219:main.c        ****         Timer_1_Start();
 806              		.loc 1 219 0
 807 00d6 FFF7FEFF 		bl	Timer_1_Start
 808              	.LVL64:
 220:main.c        ****         Pin_1_Write(1);
 809              		.loc 1 220 0
 810 00da 0120     		movs	r0, #1
 811 00dc FFF7FEFF 		bl	Pin_1_Write
 812              	.LVL65:
 813              	.L59:
 221:main.c        ****      }
 222:main.c        ****    isr_Timer_ClearPending();
 814              		.loc 1 222 0
 815 00e0 FFF7FEFF 		bl	isr_Timer_ClearPending
 816              	.LVL66:
 817 00e4 10BD     		pop	{r4, pc}
 818              	.LVL67:
 819              	.L62:
 820 00e6 00BF     		.align	2
 821              	.L61:
 822 00e8 00000000 		.word	.LANCHOR0
 823 00ec 00000000 		.word	Segundos_B
 824 00f0 00000000 		.word	Minutos_N
 825              		.cfi_endproc
 826              	.LFE71:
 827              		.size	Timer, .-Timer
 828              		.section	.text.main,"ax",%progbits
 829              		.align	2
 830              		.global	main
 831              		.thumb
 832              		.thumb_func
 833              		.type	main, %function
 834              	main:
 835              	.LFB72:
 223:main.c        **** }
 224:main.c        **** 
 225:main.c        **** 
 226:main.c        **** //
 227:main.c        **** int main(void)
 228:main.c        **** {
 836              		.loc 1 228 0
 837              		.cfi_startproc
 838              		@ Volatile: function does not return.
 839              		@ args = 0, pretend = 0, frame = 0
 840              		@ frame_needed = 0, uses_anonymous_args = 0
 841 0000 08B5     		push	{r3, lr}
 842              		.cfi_def_cfa_offset 8
 843              		.cfi_offset 3, -8
 844              		.cfi_offset 14, -4
 229:main.c        ****     CyGlobalIntEnable; /* Enable global interrupts. */
 845              		.loc 1 229 0
 846              		.syntax unified
 847              	@ 229 "main.c" 1
 848 0002 62B6     		CPSIE   i
 849              	@ 0 "" 2
ARM GAS  C:\Users\santa\AppData\Local\Temp\ccZlFtcN.s 			page 21


 230:main.c        ****     isr_Timer_StartEx(Timer);
 850              		.loc 1 230 0
 851              		.thumb
 852              		.syntax unified
 853 0004 1148     		ldr	r0, .L66
 854 0006 FFF7FEFF 		bl	isr_Timer_StartEx
 855              	.LVL68:
 231:main.c        ****     isr_Aceptar_StartEx(Aceptar);
 856              		.loc 1 231 0
 857 000a 1148     		ldr	r0, .L66+4
 858 000c FFF7FEFF 		bl	isr_Aceptar_StartEx
 859              	.LVL69:
 232:main.c        **** // 
 233:main.c        ****     isr_Blancas_StartEx(C_Blancas);
 860              		.loc 1 233 0
 861 0010 1048     		ldr	r0, .L66+8
 862 0012 FFF7FEFF 		bl	isr_Blancas_StartEx
 863              	.LVL70:
 234:main.c        **** //    
 235:main.c        ****     isr_Negras_StartEx(C_Negras);
 864              		.loc 1 235 0
 865 0016 1048     		ldr	r0, .L66+12
 866 0018 FFF7FEFF 		bl	isr_Negras_StartEx
 867              	.LVL71:
 236:main.c        ****     
 237:main.c        ****     isr_Tiempos_StartEx(Tiempos);
 868              		.loc 1 237 0
 869 001c 0F48     		ldr	r0, .L66+16
 870 001e FFF7FEFF 		bl	isr_Tiempos_StartEx
 871              	.LVL72:
 238:main.c        **** //    //isr_C2_SetPriority(6);
 239:main.c        ****     //isr_Aceptar_StartEx(Aceptar);
 240:main.c        **** //    //isr_C4_SetPriority(5);
 241:main.c        **** //    isr_C4_StartEx(Aceptar);
 242:main.c        ****     //Register2=1;
 243:main.c        ****     Lcd_Juego_Start();
 872              		.loc 1 243 0
 873 0022 FFF7FEFF 		bl	Lcd_Juego_Start
 874              	.LVL73:
 244:main.c        ****     Lcd_Juego_Position(0,0);
 875              		.loc 1 244 0
 876 0026 0021     		movs	r1, #0
 877 0028 0846     		mov	r0, r1
 878 002a FFF7FEFF 		bl	Lcd_Juego_Position
 879              	.LVL74:
 245:main.c        ****      Lcd_Juego_PrintString("Blancas:");
 880              		.loc 1 245 0
 881 002e 0C48     		ldr	r0, .L66+20
 882 0030 FFF7FEFF 		bl	Lcd_Juego_PrintString
 883              	.LVL75:
 246:main.c        ****     Lcd_Juego_Position(1,0);
 884              		.loc 1 246 0
 885 0034 0021     		movs	r1, #0
 886 0036 0120     		movs	r0, #1
 887 0038 FFF7FEFF 		bl	Lcd_Juego_Position
 888              	.LVL76:
 247:main.c        ****     Lcd_Juego_PrintString("Negras:");
ARM GAS  C:\Users\santa\AppData\Local\Temp\ccZlFtcN.s 			page 22


 889              		.loc 1 247 0
 890 003c 0948     		ldr	r0, .L66+24
 891 003e FFF7FEFF 		bl	Lcd_Juego_PrintString
 892              	.LVL77:
 893              	.L64:
 248:main.c        ****     
 249:main.c        ****     for(;;)
 250:main.c        ****     {
 251:main.c        ****        
 252:main.c        ****      //Segmentos_7_Write(Seg_Conversion(un));     
 253:main.c        ****  //   visualizacion("H");
 254:main.c        ****     Pin_1_Write(0);
 894              		.loc 1 254 0 discriminator 1
 895 0042 0020     		movs	r0, #0
 896 0044 FFF7FEFF 		bl	Pin_1_Write
 897              	.LVL78:
 898 0048 FBE7     		b	.L64
 899              	.L67:
 900 004a 00BF     		.align	2
 901              	.L66:
 902 004c 00000000 		.word	Timer
 903 0050 00000000 		.word	Aceptar
 904 0054 00000000 		.word	C_Blancas
 905 0058 00000000 		.word	C_Negras
 906 005c 00000000 		.word	Tiempos
 907 0060 00000000 		.word	.LC0
 908 0064 0C000000 		.word	.LC1
 909              		.cfi_endproc
 910              	.LFE72:
 911              		.size	main, .-main
 912              		.comm	Concat1,1,4
 913              		.comm	Concat5,5,4
 914              		.global	comm
 915              		.comm	segmento_7,1,1
 916              		.global	Data_Value
 917              		.global	Decena_S
 918              		.global	Unidad_S
 919              		.global	Decena_M
 920              		.global	Unidad_M
 921              		.global	count_int
 922              		.comm	datay,1,1
 923              		.global	Data_PrintN
 924              		.global	Type
 925              		.comm	enter,1,1
 926              		.comm	data_s,1,1
 927              		.global	r_visual
 928              		.global	cont_eventA
 929              		.global	cont
 930              		.global	Register1
 931              		.global	Flag_Configuracion
 932              		.global	Segundos_N
 933              		.comm	Segundos_B,2,2
 934              		.global	Minutos_B
 935              		.comm	Minutos_N,2,2
 936              		.global	Mref_B
 937              		.comm	Mref_N,2,2
 938              		.global	Sref_B
ARM GAS  C:\Users\santa\AppData\Local\Temp\ccZlFtcN.s 			page 23


 939              		.comm	Sref_N,2,2
 940              		.data
 941              		.type	comm, %object
 942              		.size	comm, 1
 943              	comm:
 944 0000 01       		.byte	1
 945              		.section	.rodata.str1.4,"aMS",%progbits,1
 946              		.align	2
 947              	.LC0:
 948 0000 426C616E 		.ascii	"Blancas:\000"
 948      6361733A 
 948      00
 949 0009 000000   		.space	3
 950              	.LC1:
 951 000c 4E656772 		.ascii	"Negras:\000"
 951      61733A00 
 952              		.bss
 953              		.align	2
 954              		.set	.LANCHOR0,. + 0
 955              		.type	count_int, %object
 956              		.size	count_int, 1
 957              	count_int:
 958 0000 00       		.space	1
 959              		.type	cont, %object
 960              		.size	cont, 1
 961              	cont:
 962 0001 00       		.space	1
 963              		.type	Flag_Configuracion, %object
 964              		.size	Flag_Configuracion, 1
 965              	Flag_Configuracion:
 966 0002 00       		.space	1
 967              		.type	cont_eventA, %object
 968              		.size	cont_eventA, 1
 969              	cont_eventA:
 970 0003 00       		.space	1
 971              		.type	Decena_M, %object
 972              		.size	Decena_M, 1
 973              	Decena_M:
 974 0004 00       		.space	1
 975              		.type	Unidad_M, %object
 976              		.size	Unidad_M, 1
 977              	Unidad_M:
 978 0005 00       		.space	1
 979              		.type	Decena_S, %object
 980              		.size	Decena_S, 1
 981              	Decena_S:
 982 0006 00       		.space	1
 983              		.type	Unidad_S, %object
 984              		.size	Unidad_S, 1
 985              	Unidad_S:
 986 0007 00       		.space	1
 987              		.type	Segundos_N, %object
 988              		.size	Segundos_N, 2
 989              	Segundos_N:
 990 0008 0000     		.space	2
 991              		.type	Minutos_B, %object
 992              		.size	Minutos_B, 2
ARM GAS  C:\Users\santa\AppData\Local\Temp\ccZlFtcN.s 			page 24


 993              	Minutos_B:
 994 000a 0000     		.space	2
 995              		.type	Sref_B, %object
 996              		.size	Sref_B, 2
 997              	Sref_B:
 998 000c 0000     		.space	2
 999              		.type	Mref_B, %object
 1000              		.size	Mref_B, 2
 1001              	Mref_B:
 1002 000e 0000     		.space	2
 1003              		.type	Data_Value, %object
 1004              		.size	Data_Value, 1
 1005              	Data_Value:
 1006 0010 00       		.space	1
 1007 0011 000000   		.space	3
 1008              		.type	Data_PrintN, %object
 1009              		.size	Data_PrintN, 5
 1010              	Data_PrintN:
 1011 0014 00000000 		.space	5
 1011      00
 1012              		.type	Type, %object
 1013              		.size	Type, 1
 1014              	Type:
 1015 0019 00       		.space	1
 1016              		.type	r_visual, %object
 1017              		.size	r_visual, 1
 1018              	r_visual:
 1019 001a 00       		.space	1
 1020              		.type	Register1, %object
 1021              		.size	Register1, 1
 1022              	Register1:
 1023 001b 00       		.space	1
 1024              		.text
 1025              	.Letext0:
 1026              		.file 2 "c:\\program files (x86)\\cypress\\psoc creator\\4.2\\psoc creator\\import\\gnu\\arm\\5.4.
 1027              		.file 3 "c:\\program files (x86)\\cypress\\psoc creator\\4.2\\psoc creator\\import\\gnu\\arm\\5.4.
 1028              		.file 4 "Generated_Source\\PSoC5/cytypes.h"
 1029              		.file 5 "Generated_Source\\PSoC5/core_cm3.h"
 1030              		.file 6 "Generated_Source\\PSoC5/CyLib.h"
 1031              		.file 7 "Generated_Source\\PSoC5/Tiempos.h"
 1032              		.file 8 "Generated_Source\\PSoC5/Pin_1.h"
 1033              		.file 9 "Generated_Source\\PSoC5/C_Negras.h"
 1034              		.file 10 "Generated_Source\\PSoC5/C_Blancas.h"
 1035              		.file 11 "c:\\program files (x86)\\cypress\\psoc creator\\4.2\\psoc creator\\import\\gnu\\arm\\5.4
 1036              		.file 12 "Generated_Source\\PSoC5/Lcd_Juego.h"
 1037              		.file 13 "Generated_Source\\PSoC5/Aceptar.h"
 1038              		.file 14 "Generated_Source\\PSoC5/Timer_1.h"
 1039              		.file 15 "Generated_Source\\PSoC5/isr_Timer.h"
 1040              		.file 16 "Generated_Source\\PSoC5/isr_Aceptar.h"
 1041              		.file 17 "Generated_Source\\PSoC5/isr_Blancas.h"
 1042              		.file 18 "Generated_Source\\PSoC5/isr_Negras.h"
 1043              		.file 19 "Generated_Source\\PSoC5/isr_Tiempos.h"